target datalayout = "e-m:e-p270:32:32-p271:32:32-p272:64:64-i64:64-i128:128-f80:128-n8:16:32:64-S128"
target triple = "x86_64-pc-linux-gnu"

%struct.Vp3DecodeContext = type { ptr, i32, i32, i32, i32, i32, i32, i32, i32, %struct.ProgressFrame, %struct.ProgressFrame, %struct.ProgressFrame, i32, [64 x i8], [64 x i8], %struct.HpelDSPContext, %struct.VideoDSPContext, %struct.VP3DSPContext, [64 x i16], i32, i32, i32, [3 x i32], i32, [3 x i32], i32, i32, i32, i32, i32, i32, i32, i32, i32, ptr, i32, i32, i32, i32, i32, i32, i32, i32, [2 x i32], [2 x i32], ptr, [3 x i32], [3 x i32], i8, i8, i32, [2 x ptr], [2 x [64 x i16]], [64 x i32], [384 x [64 x i8]], [2 x [3 x i8]], [2 x [3 x [64 x i8]]], [2 x [3 x [64 x i16]]], [3 x [64 x ptr]], ptr, [3 x [64 x i32]], i32, [3 x ptr], ptr, ptr, [3 x i32], ptr, [8 x i8], [3 x [2 x [3 x [64 x i16]]]], ptr, ptr, ptr, [80 x %struct.HuffTable], [64 x i8], [258 x i32], ptr, [8 x i8] }
%struct.ProgressFrame = type { ptr, ptr }
%struct.HpelDSPContext = type { [4 x [4 x ptr]], [4 x [4 x ptr]], [4 x [4 x ptr]], [4 x ptr] }
%struct.VideoDSPContext = type { ptr, ptr }
%struct.VP3DSPContext = type { ptr, ptr, ptr, ptr, ptr, ptr, ptr, ptr }
%struct.HuffTable = type { [32 x %struct.HuffEntry], i8 }
%struct.HuffEntry = type { i8, i8 }

; Function Attrs: nounwind uwtable
define internal i32 @init_block_mapping(ptr noundef %0) #0 {
  %2 = alloca ptr, align 8
  %3 = alloca i32, align 4
  %4 = alloca i32, align 4
  %5 = alloca i32, align 4
  %6 = alloca i32, align 4
  %7 = alloca i32, align 4
  %8 = alloca i32, align 4
  %9 = alloca i32, align 4
  %10 = alloca i32, align 4
  %11 = alloca i32, align 4
  %12 = alloca i32, align 4
  %13 = alloca i32, align 4
  %14 = alloca i32, align 4
  store ptr %0, ptr %2, align 8, !tbaa !29
  call void @llvm.lifetime.start.p0(i64 4, ptr %3) #9
  store i32 0, ptr %3, align 4, !tbaa !31
  call void @llvm.lifetime.start.p0(i64 4, ptr %4) #9
  store i32 0, ptr %4, align 4, !tbaa !31
  br label %15

15:                                               ; preds = %147, %1
  %16 = load i32, ptr %4, align 4, !tbaa !31
  %17 = icmp slt i32 %16, 3
  br i1 %17, label %19, label %18

18:                                               ; preds = %15
  store i32 2, ptr %5, align 4
  call void @llvm.lifetime.end.p0(i64 4, ptr %4) #9
  br label %150

19:                                               ; preds = %15
  call void @llvm.lifetime.start.p0(i64 4, ptr %6) #9
  %20 = load i32, ptr %4, align 4, !tbaa !31
  %21 = icmp ne i32 %20, 0
  br i1 %21, label %22, label %26

22:                                               ; preds = %19
  %23 = load ptr, ptr %2, align 8, !tbaa !29
  %24 = getelementptr inbounds nuw %struct.Vp3DecodeContext, ptr %23, i32 0, i32 29
  %25 = load i32, ptr %24, align 8, !tbaa !115
  br label %30

26:                                               ; preds = %19
  %27 = load ptr, ptr %2, align 8, !tbaa !29
  %28 = getelementptr inbounds nuw %struct.Vp3DecodeContext, ptr %27, i32 0, i32 26
  %29 = load i32, ptr %28, align 4, !tbaa !111
  br label %30

30:                                               ; preds = %26, %22
  %31 = phi i32 [ %25, %22 ], [ %29, %26 ]
  store i32 %31, ptr %6, align 4, !tbaa !31
  call void @llvm.lifetime.start.p0(i64 4, ptr %7) #9
  %32 = load i32, ptr %4, align 4, !tbaa !31
  %33 = icmp ne i32 %32, 0
  br i1 %33, label %34, label %38

34:                                               ; preds = %30
  %35 = load ptr, ptr %2, align 8, !tbaa !29
  %36 = getelementptr inbounds nuw %struct.Vp3DecodeContext, ptr %35, i32 0, i32 30
  %37 = load i32, ptr %36, align 4, !tbaa !91
  br label %42

38:                                               ; preds = %30
  %39 = load ptr, ptr %2, align 8, !tbaa !29
  %40 = getelementptr inbounds nuw %struct.Vp3DecodeContext, ptr %39, i32 0, i32 27
  %41 = load i32, ptr %40, align 16, !tbaa !112
  br label %42

42:                                               ; preds = %38, %34
  %43 = phi i32 [ %37, %34 ], [ %41, %38 ]
  store i32 %43, ptr %7, align 4, !tbaa !31
  call void @llvm.lifetime.start.p0(i64 4, ptr %8) #9
  %44 = load ptr, ptr %2, align 8, !tbaa !29
  %45 = getelementptr inbounds nuw %struct.Vp3DecodeContext, ptr %44, i32 0, i32 43
  %46 = load i32, ptr %4, align 4, !tbaa !31
  %47 = icmp ne i32 %46, 0
  %48 = xor i1 %47, true
  %49 = xor i1 %48, true
  %50 = zext i1 %49 to i32
  %51 = sext i32 %50 to i64
  %52 = getelementptr inbounds [2 x i32], ptr %45, i64 0, i64 %51
  %53 = load i32, ptr %52, align 4, !tbaa !31
  store i32 %53, ptr %8, align 4, !tbaa !31
  call void @llvm.lifetime.start.p0(i64 4, ptr %9) #9
  %54 = load ptr, ptr %2, align 8, !tbaa !29
  %55 = getelementptr inbounds nuw %struct.Vp3DecodeContext, ptr %54, i32 0, i32 44
  %56 = load i32, ptr %4, align 4, !tbaa !31
  %57 = icmp ne i32 %56, 0
  %58 = xor i1 %57, true
  %59 = xor i1 %58, true
  %60 = zext i1 %59 to i32
  %61 = sext i32 %60 to i64
  %62 = getelementptr inbounds [2 x i32], ptr %55, i64 0, i64 %61
  %63 = load i32, ptr %62, align 4, !tbaa !31
  store i32 %63, ptr %9, align 4, !tbaa !31
  call void @llvm.lifetime.start.p0(i64 4, ptr %10) #9
  store i32 0, ptr %10, align 4, !tbaa !31
  br label %64

64:                                               ; preds = %143, %42
  %65 = load i32, ptr %10, align 4, !tbaa !31
  %66 = load i32, ptr %7, align 4, !tbaa !31
  %67 = icmp slt i32 %65, %66
  br i1 %67, label %69, label %68

68:                                               ; preds = %64
  store i32 5, ptr %5, align 4
  call void @llvm.lifetime.end.p0(i64 4, ptr %10) #9
  br label %146

69:                                               ; preds = %64
  call void @llvm.lifetime.start.p0(i64 4, ptr %11) #9
  store i32 0, ptr %11, align 4, !tbaa !31
  br label %70

70:                                               ; preds = %139, %69
  %71 = load i32, ptr %11, align 4, !tbaa !31
  %72 = load i32, ptr %6, align 4, !tbaa !31
  %73 = icmp slt i32 %71, %72
  br i1 %73, label %75, label %74

74:                                               ; preds = %70
  store i32 8, ptr %5, align 4
  call void @llvm.lifetime.end.p0(i64 4, ptr %11) #9
  br label %142

75:                                               ; preds = %70
  call void @llvm.lifetime.start.p0(i64 4, ptr %12) #9
  store i32 0, ptr %12, align 4, !tbaa !31
  br label %76

76:                                               ; preds = %135, %75
  %77 = load i32, ptr %12, align 4, !tbaa !31
  %78 = icmp slt i32 %77, 16
  br i1 %78, label %80, label %79

79:                                               ; preds = %76
  store i32 11, ptr %5, align 4
  call void @llvm.lifetime.end.p0(i64 4, ptr %12) #9
  br label %138

80:                                               ; preds = %76
  call void @llvm.lifetime.start.p0(i64 4, ptr %13) #9
  %81 = load i32, ptr %11, align 4, !tbaa !31
  %82 = mul nsw i32 4, %81
  %83 = load i32, ptr %12, align 4, !tbaa !31
  %84 = sext i32 %83 to i64
  %85 = getelementptr inbounds [16 x [2 x i8]], ptr @hilbert_offset, i64 0, i64 %84
  %86 = getelementptr inbounds [2 x i8], ptr %85, i64 0, i64 0
  %87 = load i8, ptr %86, align 2, !tbaa !70
  %88 = zext i8 %87 to i32
  %89 = add nsw i32 %82, %88
  store i32 %89, ptr %13, align 4, !tbaa !31
  call void @llvm.lifetime.start.p0(i64 4, ptr %14) #9
  %90 = load i32, ptr %10, align 4, !tbaa !31
  %91 = mul nsw i32 4, %90
  %92 = load i32, ptr %12, align 4, !tbaa !31
  %93 = sext i32 %92 to i64
  %94 = getelementptr inbounds [16 x [2 x i8]], ptr @hilbert_offset, i64 0, i64 %93
  %95 = getelementptr inbounds [2 x i8], ptr %94, i64 0, i64 1
  %96 = load i8, ptr %95, align 1, !tbaa !70
  %97 = zext i8 %96 to i32
  %98 = add nsw i32 %91, %97
  store i32 %98, ptr %14, align 4, !tbaa !31
  %99 = load i32, ptr %13, align 4, !tbaa !31
  %100 = load i32, ptr %8, align 4, !tbaa !31
  %101 = icmp slt i32 %99, %100
  br i1 %101, label %102, label %126

102:                                              ; preds = %80
  %103 = load i32, ptr %14, align 4, !tbaa !31
  %104 = load i32, ptr %9, align 4, !tbaa !31
  %105 = icmp slt i32 %103, %104
  br i1 %105, label %106, label %126

106:                                              ; preds = %102
  %107 = load ptr, ptr %2, align 8, !tbaa !29
  %108 = getelementptr inbounds nuw %struct.Vp3DecodeContext, ptr %107, i32 0, i32 46
  %109 = load i32, ptr %4, align 4, !tbaa !31
  %110 = sext i32 %109 to i64
  %111 = getelementptr inbounds [3 x i32], ptr %108, i64 0, i64 %110
  %112 = load i32, ptr %111, align 4, !tbaa !31
  %113 = load i32, ptr %14, align 4, !tbaa !31
  %114 = load i32, ptr %8, align 4, !tbaa !31
  %115 = mul nsw i32 %113, %114
  %116 = add nsw i32 %112, %115
  %117 = load i32, ptr %13, align 4, !tbaa !31
  %118 = add nsw i32 %116, %117
  %119 = load ptr, ptr %2, align 8, !tbaa !29
  %120 = getelementptr inbounds nuw %struct.Vp3DecodeContext, ptr %119, i32 0, i32 69
  %121 = load ptr, ptr %120, align 16, !tbaa !188
  %122 = load i32, ptr %3, align 4, !tbaa !31
  %123 = add nsw i32 %122, 1
  store i32 %123, ptr %3, align 4, !tbaa !31
  %124 = sext i32 %122 to i64
  %125 = getelementptr inbounds i32, ptr %121, i64 %124
  store i32 %118, ptr %125, align 4, !tbaa !31
  br label %134

126:                                              ; preds = %102, %80
  %127 = load ptr, ptr %2, align 8, !tbaa !29
  %128 = getelementptr inbounds nuw %struct.Vp3DecodeContext, ptr %127, i32 0, i32 69
  %129 = load ptr, ptr %128, align 16, !tbaa !188
  %130 = load i32, ptr %3, align 4, !tbaa !31
  %131 = add nsw i32 %130, 1
  store i32 %131, ptr %3, align 4, !tbaa !31
  %132 = sext i32 %130 to i64
  %133 = getelementptr inbounds i32, ptr %129, i64 %132
  store i32 -1, ptr %133, align 4, !tbaa !31
  br label %134

134:                                              ; preds = %126, %106
  call void @llvm.lifetime.end.p0(i64 4, ptr %14) #9
  call void @llvm.lifetime.end.p0(i64 4, ptr %13) #9
  br label %135

135:                                              ; preds = %134
  %136 = load i32, ptr %12, align 4, !tbaa !31
  %137 = add nsw i32 %136, 1
  store i32 %137, ptr %12, align 4, !tbaa !31
  br label %76, !llvm.loop !299

138:                                              ; preds = %79
  br label %139

139:                                              ; preds = %138
  %140 = load i32, ptr %11, align 4, !tbaa !31
  %141 = add nsw i32 %140, 1
  store i32 %141, ptr %11, align 4, !tbaa !31
  br label %70, !llvm.loop !300

142:                                              ; preds = %74
  br label %143

143:                                              ; preds = %142
  %144 = load i32, ptr %10, align 4, !tbaa !31
  %145 = add nsw i32 %144, 1
  store i32 %145, ptr %10, align 4, !tbaa !31
  br label %64, !llvm.loop !301

146:                                              ; preds = %68
  call void @llvm.lifetime.end.p0(i64 4, ptr %9) #9
  call void @llvm.lifetime.end.p0(i64 4, ptr %8) #9
  call void @llvm.lifetime.end.p0(i64 4, ptr %7) #9
  call void @llvm.lifetime.end.p0(i64 4, ptr %6) #9
  br label %147

147:                                              ; preds = %146
  %148 = load i32, ptr %4, align 4, !tbaa !31
  %149 = add nsw i32 %148, 1
  store i32 %149, ptr %4, align 4, !tbaa !31
  br label %15, !llvm.loop !302

150:                                              ; preds = %18
  store i32 1, ptr %5, align 4
  call void @llvm.lifetime.end.p0(i64 4, ptr %3) #9
  ret i32 0
}