; Function Attrs: nofree norecurse nosync nounwind memory(write, argmem: readwrite, inaccessiblemem: none) uwtable
define internal fastcc void @init_block_mapping(ptr noundef readonly captures(none) %0) unnamed_addr #7 {
  %2 = getelementptr inbounds nuw i8, ptr %0, i64 968
  %3 = getelementptr inbounds nuw i8, ptr %0, i64 976
  %4 = getelementptr inbounds nuw i8, ptr %0, i64 31984
  %5 = getelementptr inbounds nuw i8, ptr %0, i64 992
  br label %7

6:                                                ; preds = %._crit_edge51
  ret void

7:                                                ; preds = %1, %._crit_edge51
  %indvars.iv63 = phi i64 [ 0, %1 ], [ %indvars.iv.next64, %._crit_edge51 ]
  %.054 = phi i32 [ 0, %1 ], [ %.1.lcssa, %._crit_edge51 ]
  %8 = icmp ne i64 %indvars.iv63, 0
  %.in.v = select i1 %8, i64 904, i64 892
  %.in = getelementptr inbounds nuw i8, ptr %0, i64 %.in.v
  %9 = load i32, ptr %.in, align 4, !tbaa !42
  %.in43.v = select i1 %8, i64 908, i64 896
  %.in43 = getelementptr inbounds nuw i8, ptr %0, i64 %.in43.v
  %10 = load i32, ptr %.in43, align 4, !tbaa !42
  %11 = zext i1 %8 to i64
  %12 = getelementptr inbounds nuw [2 x i32], ptr %2, i64 0, i64 %11
  %13 = load i32, ptr %12, align 4, !tbaa !42
  %14 = getelementptr inbounds nuw [2 x i32], ptr %3, i64 0, i64 %11
  %15 = load i32, ptr %14, align 4, !tbaa !42
  %16 = icmp sgt i32 %10, 0
  br i1 %16, label %.preheader44.lr.ph, label %._crit_edge51

.preheader44.lr.ph:                               ; preds = %7
  %17 = icmp sgt i32 %9, 0
  %18 = getelementptr inbounds nuw [3 x i32], ptr %5, i64 0, i64 %indvars.iv63
  br i1 %17, label %.preheader44.us.preheader, label %._crit_edge51

.preheader44.us.preheader:                        ; preds = %.preheader44.lr.ph
  %19 = load ptr, ptr %4, align 16, !tbaa !105
  br label %.preheader44.us

.preheader44.us:                                  ; preds = %.preheader44.us.preheader, %._crit_edge.us
  %.150.us = phi i32 [ %22, %._crit_edge.us ], [ %.054, %.preheader44.us.preheader ]
  %.03949.us = phi i32 [ %44, %._crit_edge.us ], [ 0, %.preheader44.us.preheader ]
  %20 = shl nsw i32 %.03949.us, 2
  br label %.preheader.us

21:                                               ; preds = %40
  %22 = trunc nsw i64 %indvars.iv.next to i32
  %23 = add nuw nsw i32 %.03847.us, 1
  %exitcond61.not = icmp eq i32 %23, %9
  br i1 %exitcond61.not, label %._crit_edge.us, label %.preheader.us, !llvm.loop !269

24:                                               ; preds = %.preheader.us, %40
  %indvars.iv56 = phi i64 [ 0, %.preheader.us ], [ %indvars.iv.next57, %40 ]
  %indvars.iv = phi i64 [ %43, %.preheader.us ], [ %indvars.iv.next, %40 ]
  %25 = getelementptr inbounds nuw [16 x [2 x i8]], ptr @hilbert_offset, i64 0, i64 %indvars.iv56
  %26 = load i8, ptr %25, align 2, !tbaa !60
  %27 = zext i8 %26 to i32
  %28 = add nuw nsw i32 %42, %27
  %29 = getelementptr inbounds nuw i8, ptr %25, i64 1
  %30 = load i8, ptr %29, align 1, !tbaa !60
  %31 = zext i8 %30 to i32
  %32 = add nuw nsw i32 %20, %31
  %33 = icmp slt i32 %28, %13
  %34 = icmp slt i32 %32, %15
  %or.cond.us = select i1 %33, i1 %34, i1 false
  br i1 %or.cond.us, label %35, label %40

35:                                               ; preds = %24
  %36 = load i32, ptr %18, align 4, !tbaa !42
  %37 = mul nsw i32 %32, %13
  %38 = add i32 %37, %28
  %39 = add i32 %38, %36
  br label %40

40:                                               ; preds = %24, %35
  %.sink = phi i32 [ %39, %35 ], [ -1, %24 ]
  %41 = getelementptr inbounds i32, ptr %19, i64 %indvars.iv
  store i32 %.sink, ptr %41, align 4, !tbaa !42
  %indvars.iv.next = add nsw i64 %indvars.iv, 1
  %indvars.iv.next57 = add nuw nsw i64 %indvars.iv56, 1
  %exitcond.not = icmp eq i64 %indvars.iv.next57, 16
  br i1 %exitcond.not, label %21, label %24, !llvm.loop !270

.preheader.us:                                    ; preds = %.preheader44.us, %21
  %.248.us = phi i32 [ %.150.us, %.preheader44.us ], [ %22, %21 ]
  %.03847.us = phi i32 [ 0, %.preheader44.us ], [ %23, %21 ]
  %42 = shl nsw i32 %.03847.us, 2
  %43 = sext i32 %.248.us to i64
  br label %24

._crit_edge.us:                                   ; preds = %21
  %44 = add nuw nsw i32 %.03949.us, 1
  %exitcond62.not = icmp eq i32 %44, %10
  br i1 %exitcond62.not, label %._crit_edge51, label %.preheader44.us, !llvm.loop !271

._crit_edge51:                                    ; preds = %._crit_edge.us, %.preheader44.lr.ph, %7
  %.1.lcssa = phi i32 [ %.054, %7 ], [ %.054, %.preheader44.lr.ph ], [ %22, %._crit_edge.us ]
  %indvars.iv.next64 = add nuw nsw i64 %indvars.iv63, 1
  %exitcond66.not = icmp eq i64 %indvars.iv.next64, 3
  br i1 %exitcond66.not, label %6, label %7, !llvm.loop !272
}